; Function Attrs: mustprogress uwtable
define void @_ZN5boost3log11v2_mt_posix5sinks17text_file_backend37set_target_file_name_pattern_internalERKNS_10filesystem4pathE(ptr nocapture noundef nonnull readonly align 8 dereferenceable(8) %0, ptr noundef nonnull align 8 dereferenceable(32) %1) local_unnamed_addr #4 align 2 personality ptr @__gxx_personality_v0 {
  %3 = getelementptr inbounds nuw i8, ptr %1, i64 8
  %4 = load i64, ptr %3, align 8, !tbaa !16
  %5 = icmp eq i64 %4, 0
  %6 = load ptr, ptr %0, align 8, !tbaa !225
  %7 = getelementptr inbounds nuw i8, ptr %6, i64 104
  br i1 %5, label %11, label %8

8:                                                ; preds = %2
  %9 = getelementptr inbounds nuw i8, ptr %6, i64 72
  %10 = getelementptr inbounds nuw i8, ptr %6, i64 136
  tail call void @_ZN5boost3log11v2_mt_posix5sinks9anonymous23parse_file_name_patternERKNS_10filesystem4pathERS5_S8_RNS1_3aux14light_functionIFNSt7__cxx1112basic_stringIcSt11char_traitsIcESaIcEEEjEEE(ptr noundef nonnull align 8 dereferenceable(32) %1, ptr noundef nonnull align 8 dereferenceable(32) %7, ptr noundef nonnull align 8 dereferenceable(32) %9, ptr noundef nonnull align 8 dereferenceable(8) %10)
  br label %_ZN5boost3log11v2_mt_posix3aux14light_functionIFNSt7__cxx1112basic_stringIcSt11char_traitsIcESaIcEEEjEE5clearEv.exit

11:                                               ; preds = %2
  %12 = getelementptr inbounds nuw i8, ptr %6, i64 112
  store i64 0, ptr %12, align 8, !tbaa !16
  %13 = load ptr, ptr %7, align 8, !tbaa !13
  store i8 0, ptr %13, align 1, !tbaa !15
  %14 = load ptr, ptr %0, align 8, !tbaa !225
  %15 = getelementptr inbounds nuw i8, ptr %14, i64 72
  %16 = getelementptr inbounds nuw i8, ptr %14, i64 80
  store i64 0, ptr %16, align 8, !tbaa !16
  %17 = load ptr, ptr %15, align 8, !tbaa !13
  store i8 0, ptr %17, align 1, !tbaa !15
  %18 = load ptr, ptr %0, align 8, !tbaa !225
  %19 = getelementptr inbounds nuw i8, ptr %18, i64 136
  %20 = load ptr, ptr %19, align 8, !tbaa !68
  %.not.i = icmp eq ptr %20, null
  br i1 %.not.i, label %_ZN5boost3log11v2_mt_posix3aux14light_functionIFNSt7__cxx1112basic_stringIcSt11char_traitsIcESaIcEEEjEE5clearEv.exit, label %21

21:                                               ; preds = %11
  %22 = getelementptr inbounds nuw i8, ptr %20, i64 16
  %23 = load ptr, ptr %22, align 8, !tbaa !67
  invoke void %23(ptr noundef nonnull %20)
          to label %24 unwind label %25

24:                                               ; preds = %21
  store ptr null, ptr %19, align 8, !tbaa !68
  br label %_ZN5boost3log11v2_mt_posix3aux14light_functionIFNSt7__cxx1112basic_stringIcSt11char_traitsIcESaIcEEEjEE5clearEv.exit

25:                                               ; preds = %21
  %26 = landingpad { ptr, i32 }
          catch ptr null
  %27 = extractvalue { ptr, i32 } %26, 0
  tail call void @__clang_call_terminate(ptr %27) #31
  unreachable

_ZN5boost3log11v2_mt_posix3aux14light_functionIFNSt7__cxx1112basic_stringIcSt11char_traitsIcESaIcEEEjEE5clearEv.exit: ; preds = %24, %11, %8
  ret void
}